; Function Attrs: mustprogress nofree norecurse nosync nounwind willreturn memory(readwrite, inaccessiblemem: none) uwtable
define void @_Z30rtlil_frontend_yy_flush_bufferP15yy_buffer_state(ptr noundef captures(address) %0) local_unnamed_addr #15 {
  %.not = icmp eq ptr %0, null
  br i1 %.not, label %.thread, label %2

2:                                                ; preds = %1
  %3 = getelementptr inbounds nuw i8, ptr %0, i64 28
  store i32 0, ptr %3, align 4, !tbaa !26
  %4 = getelementptr inbounds nuw i8, ptr %0, i64 8
  %5 = load ptr, ptr %4, align 8, !tbaa !24
  store i8 0, ptr %5, align 1, !tbaa !29
  %6 = load ptr, ptr %4, align 8, !tbaa !24
  %7 = getelementptr inbounds nuw i8, ptr %6, i64 1
  store i8 0, ptr %7, align 1, !tbaa !29
  %8 = load ptr, ptr %4, align 8, !tbaa !24
  %9 = getelementptr inbounds nuw i8, ptr %0, i64 16
  store ptr %8, ptr %9, align 8, !tbaa !27
  %10 = getelementptr inbounds nuw i8, ptr %0, i64 40
  store i32 1, ptr %10, align 8, !tbaa !47
  %11 = getelementptr inbounds nuw i8, ptr %0, i64 56
  store i32 0, ptr %11, align 8, !tbaa !38
  %12 = load ptr, ptr @_ZL15yy_buffer_stack, align 8, !tbaa !15
  %.not10 = icmp eq ptr %12, null
  br i1 %.not10, label %.thread, label %13

13:                                               ; preds = %2
  %14 = load i64, ptr @_ZL19yy_buffer_stack_top, align 8, !tbaa !18
  %15 = getelementptr inbounds nuw ptr, ptr %12, i64 %14
  %16 = load ptr, ptr %15, align 8, !tbaa !20
  %17 = icmp eq ptr %0, %16
  br i1 %17, label %18, label %.thread

18:                                               ; preds = %13
  %19 = getelementptr inbounds nuw i8, ptr %16, i64 28
  %20 = load i32, ptr %19, align 4, !tbaa !26
  store i32 %20, ptr @_ZL10yy_n_chars, align 4, !tbaa !11
  %21 = getelementptr inbounds nuw i8, ptr %16, i64 16
  %22 = load ptr, ptr %21, align 8, !tbaa !27
  store ptr %22, ptr @_ZL10yy_c_buf_p, align 8, !tbaa !6
  store ptr %22, ptr @rtlil_frontend_yytext, align 8, !tbaa !6
  %23 = load ptr, ptr %16, align 8, !tbaa !28
  store ptr %23, ptr @rtlil_frontend_yyin, align 8, !tbaa !13
  %24 = load i8, ptr %22, align 1, !tbaa !29
  store i8 %24, ptr @_ZL12yy_hold_char, align 1, !tbaa !29
  br label %.thread

.thread:                                          ; preds = %2, %1, %18, %13
  ret void
}